; Function Attrs: nounwind uwtable
define noundef zeroext i1 @lv_obj_remove_event_cb(ptr noundef readonly %0, ptr noundef readnone %1) local_unnamed_addr #0 {
  %.not = icmp eq ptr %0, null
  br i1 %.not, label %.preheader, label %3

.preheader:                                       ; preds = %2, %.preheader
  br label %.preheader

3:                                                ; preds = %2
  %4 = getelementptr inbounds nuw i8, ptr %0, i64 16
  %5 = load ptr, ptr %4, align 8, !tbaa !13
  %6 = icmp eq ptr %5, null
  br i1 %6, label %lv_obj_remove_event.exit, label %lv_obj_get_event_count.exit

lv_obj_get_event_count.exit:                      ; preds = %3
  %7 = getelementptr inbounds nuw i8, ptr %5, i64 16
  %8 = tail call i32 @lv_event_get_count(ptr noundef nonnull %7) #4
  %.not29 = icmp eq i32 %8, 0
  br i1 %.not29, label %lv_obj_remove_event.exit, label %.lr.ph

.lr.ph:                                           ; preds = %lv_obj_get_event_count.exit
  %9 = load ptr, ptr %4, align 8, !tbaa !13
  %10 = icmp eq ptr %9, null
  br i1 %10, label %lv_obj_remove_event.exit, label %.lr.ph.split

.lr.ph.splitthread-pre-split:                     ; preds = %lv_obj_get_event_dsc.exit.thread
  %.pr = load ptr, ptr %4, align 8, !tbaa !13
  br label %.lr.ph.split

.lr.ph.split:                                     ; preds = %.lr.ph, %.lr.ph.splitthread-pre-split
  %11 = phi ptr [ %.pr, %.lr.ph.splitthread-pre-split ], [ %9, %.lr.ph ]
  %.01428 = phi i32 [ %23, %.lr.ph.splitthread-pre-split ], [ 0, %.lr.ph ]
  %12 = icmp eq ptr %11, null
  br i1 %12, label %lv_obj_get_event_dsc.exit.thread, label %lv_obj_get_event_dsc.exit

lv_obj_get_event_dsc.exit:                        ; preds = %.lr.ph.split
  %13 = getelementptr inbounds nuw i8, ptr %11, i64 16
  %14 = tail call ptr @lv_event_get_dsc(ptr noundef nonnull %13, i32 noundef %.01428) #4
  %.not17 = icmp eq ptr %14, null
  br i1 %.not17, label %lv_obj_get_event_dsc.exit.thread, label %15

15:                                               ; preds = %lv_obj_get_event_dsc.exit
  %16 = load ptr, ptr %14, align 8, !tbaa !22
  %17 = icmp eq ptr %16, %1
  br i1 %17, label %.critedge, label %lv_obj_get_event_dsc.exit.thread

.critedge:                                        ; preds = %15
  %18 = load ptr, ptr %4, align 8, !tbaa !13
  %19 = icmp eq ptr %18, null
  br i1 %19, label %lv_obj_remove_event.exit, label %20

20:                                               ; preds = %.critedge
  %21 = getelementptr inbounds nuw i8, ptr %18, i64 16
  %22 = tail call zeroext i1 @lv_event_remove(ptr noundef nonnull %21, i32 noundef %.01428) #4
  br label %lv_obj_remove_event.exit

lv_obj_get_event_dsc.exit.thread:                 ; preds = %.lr.ph.split, %15, %lv_obj_get_event_dsc.exit
  %23 = add nuw i32 %.01428, 1
  %exitcond.not = icmp eq i32 %23, %8
  br i1 %exitcond.not, label %lv_obj_remove_event.exit, label %.lr.ph.splitthread-pre-split, !llvm.loop !24

lv_obj_remove_event.exit:                         ; preds = %lv_obj_get_event_dsc.exit.thread, %3, %.lr.ph, %lv_obj_get_event_count.exit, %20, %.critedge
  %24 = phi i1 [ true, %20 ], [ true, %.critedge ], [ false, %lv_obj_get_event_count.exit ], [ false, %.lr.ph ], [ false, %3 ], [ false, %lv_obj_get_event_dsc.exit.thread ]
  ret i1 %24
}